target datalayout = "e-m:e-p270:32:32-p271:32:32-p272:64:64-i64:64-i128:128-f80:128-n8:16:32:64-S128"
target triple = "x86_64-pc-linux-gnu"

%struct._lv_scale_t = type <{ %struct._lv_obj_t, %struct.lv_ll_t, ptr, i32, i32, i32, i64, i32, i32, i32, i32, i32 }>
%struct._lv_obj_t = type { ptr, ptr, ptr, ptr, ptr, %struct.lv_area_t, i32, i16, i16 }
%struct.lv_area_t = type { i32, i32, i32, i32 }
%struct.lv_ll_t = type { i32, ptr, ptr }

; Function Attrs: nounwind uwtable
define void @lv_scale_set_text_src(ptr noundef %0, ptr noundef %1) #0 {
  %3 = alloca ptr, align 8
  %4 = alloca ptr, align 8
  %5 = alloca ptr, align 8
  %6 = alloca i32, align 4
  store ptr %0, ptr %3, align 8, !tbaa !3
  store ptr %1, ptr %4, align 8, !tbaa !3
  br label %7

7:                                                ; preds = %2
  br label %8

8:                                                ; preds = %7
  call void @llvm.lifetime.start.p0(i64 8, ptr %5) #7
  %9 = load ptr, ptr %3, align 8, !tbaa !3
  store ptr %9, ptr %5, align 8, !tbaa !3
  %10 = load ptr, ptr %4, align 8, !tbaa !3
  %11 = load ptr, ptr %5, align 8, !tbaa !3
  %12 = getelementptr inbounds nuw %struct._lv_scale_t, ptr %11, i32 0, i32 2
  store ptr %10, ptr %12, align 8, !tbaa !21
  %13 = load ptr, ptr %5, align 8, !tbaa !3
  %14 = getelementptr inbounds nuw %struct._lv_scale_t, ptr %13, i32 0, i32 9
  store i32 0, ptr %14, align 4, !tbaa !20
  %15 = load ptr, ptr %5, align 8, !tbaa !3
  %16 = getelementptr inbounds nuw %struct._lv_scale_t, ptr %15, i32 0, i32 2
  %17 = load ptr, ptr %16, align 8, !tbaa !21
  %18 = icmp ne ptr %17, null
  br i1 %18, label %19, label %36

19:                                               ; preds = %8
  call void @llvm.lifetime.start.p0(i64 4, ptr %6) #7
  store i32 0, ptr %6, align 4, !tbaa !25
  br label %20

20:                                               ; preds = %32, %19
  %21 = load ptr, ptr %4, align 8, !tbaa !3
  %22 = load i32, ptr %6, align 4, !tbaa !25
  %23 = sext i32 %22 to i64
  %24 = getelementptr inbounds ptr, ptr %21, i64 %23
  %25 = load ptr, ptr %24, align 8, !tbaa !3
  %26 = icmp ne ptr %25, null
  br i1 %26, label %27, label %35

27:                                               ; preds = %20
  %28 = load ptr, ptr %5, align 8, !tbaa !3
  %29 = getelementptr inbounds nuw %struct._lv_scale_t, ptr %28, i32 0, i32 9
  %30 = load i32, ptr %29, align 4, !tbaa !20
  %31 = add nsw i32 %30, 1
  store i32 %31, ptr %29, align 4, !tbaa !20
  br label %32

32:                                               ; preds = %27
  %33 = load i32, ptr %6, align 4, !tbaa !25
  %34 = add nsw i32 %33, 1
  store i32 %34, ptr %6, align 4, !tbaa !25
  br label %20, !llvm.loop !36

35:                                               ; preds = %20
  call void @llvm.lifetime.end.p0(i64 4, ptr %6) #7
  br label %36

36:                                               ; preds = %35, %8
  %37 = load ptr, ptr %3, align 8, !tbaa !3
  call void @lv_obj_invalidate(ptr noundef %37)
  call void @llvm.lifetime.end.p0(i64 8, ptr %5) #7
  ret void
}