; Function Attrs: nounwind uwtable
define void @lv_scale_set_text_src(ptr noundef %0, ptr noundef %1) local_unnamed_addr #0 {
  %3 = getelementptr inbounds nuw i8, ptr %0, i64 88
  store ptr %1, ptr %3, align 8, !tbaa !20
  %4 = getelementptr inbounds nuw i8, ptr %0, i64 124
  store i32 0, ptr %4, align 4, !tbaa !19
  %.not = icmp eq ptr %1, null
  br i1 %.not, label %.loopexit, label %.preheader

.preheader:                                       ; preds = %2
  %5 = load ptr, ptr %1, align 8, !tbaa !28
  %.not910 = icmp eq ptr %5, null
  br i1 %.not910, label %.loopexit, label %.lr.ph

.lr.ph:                                           ; preds = %.preheader, %.lr.ph
  %indvars.iv = phi i64 [ %indvars.iv.next, %.lr.ph ], [ 0, %.preheader ]
  %6 = phi i32 [ %7, %.lr.ph ], [ 0, %.preheader ]
  %7 = add nuw nsw i32 %6, 1
  %indvars.iv.next = add nuw nsw i64 %indvars.iv, 1
  %8 = getelementptr inbounds ptr, ptr %1, i64 %indvars.iv.next
  %9 = load ptr, ptr %8, align 8, !tbaa !28
  %.not9 = icmp eq ptr %9, null
  br i1 %.not9, label %..loopexit_crit_edge, label %.lr.ph, !llvm.loop !29

..loopexit_crit_edge:                             ; preds = %.lr.ph
  store i32 %7, ptr %4, align 4, !tbaa !19
  br label %.loopexit

.loopexit:                                        ; preds = %.preheader, %..loopexit_crit_edge, %2
  tail call void @lv_obj_invalidate(ptr noundef nonnull %0) #9
  ret void
}